; Function Attrs: mustprogress nofree norecurse nosync nounwind willreturn memory(readwrite, inaccessiblemem: none) uwtable
define hidden void @_ZN11klassVtable13put_method_atEP6Methodi(ptr nocapture noundef nonnull readonly align 8 dereferenceable(16) %0, ptr noundef %1, i32 noundef %2) local_unnamed_addr #4 align 2 {
  %4 = load ptr, ptr %0, align 8
  %5 = getelementptr inbounds i8, ptr %4, i64 188
  %6 = load i16, ptr %5, align 4
  %7 = and i16 %6, 1
  %.not.i = icmp eq i16 %7, 0
  br i1 %.not.i, label %_ZN11klassVtable24is_preinitialized_vtableEv.exit.thread, label %8

8:                                                ; preds = %3
  %9 = load i8, ptr @_ZN15MetaspaceShared19_remapped_readwriteE, align 1
  %10 = trunc i8 %9 to i1
  %11 = and i16 %6, 8
  %12 = icmp eq i16 %11, 0
  %or.cond.not = or i1 %12, %10
  br i1 %or.cond.not, label %_ZN11klassVtable24is_preinitialized_vtableEv.exit.thread, label %19

_ZN11klassVtable24is_preinitialized_vtableEv.exit.thread: ; preds = %3, %8
  %13 = getelementptr inbounds i8, ptr %0, i64 8
  %14 = load i32, ptr %13, align 8
  %15 = sext i32 %14 to i64
  %16 = getelementptr inbounds i8, ptr %4, i64 %15
  %17 = sext i32 %2 to i64
  %18 = getelementptr inbounds %class.vtableEntry, ptr %16, i64 %17
  store ptr %1, ptr %18, align 8
  br label %19

19:                                               ; preds = %8, %_ZN11klassVtable24is_preinitialized_vtableEv.exit.thread
  ret void
}